target datalayout = "e-m:e-p270:32:32-p271:32:32-p272:64:64-i64:64-i128:128-f80:128-n8:16:32:64-S128"
target triple = "x86_64-pc-linux-gnu"

%"class.icu_77::UObject" = type { ptr }
%"class.icu_77::NumberFormat" = type <{ %"class.icu_77::Format", i8, [3 x i8], i32, i32, i32, i32, i8, i8, [4 x i16], [2 x i8], i32, [4 x i8] }>
%"class.icu_77::Format" = type { %"class.icu_77::UObject", ptr, ptr }

; Function Attrs: mustprogress uwtable
define noundef zeroext i1 @_ZNK6icu_7712NumberFormateqERKNS_6FormatE(ptr noundef nonnull align 8 dereferenceable(60) %0, ptr noundef nonnull align 8 dereferenceable(24) %1) unnamed_addr #1 align 2 {
  %3 = alloca ptr, align 8
  %4 = alloca ptr, align 8
  %5 = alloca ptr, align 8
  store ptr %0, ptr %3, align 8, !tbaa !40
  store ptr %1, ptr %4, align 8, !tbaa !64
  %6 = load ptr, ptr %3, align 8
  call void @llvm.lifetime.start.p0(i64 8, ptr %5) #15
  %7 = load ptr, ptr %4, align 8, !tbaa !64
  store ptr %7, ptr %5, align 8, !tbaa !40
  %8 = load ptr, ptr %4, align 8, !tbaa !64
  %9 = icmp eq ptr %6, %8
  br i1 %9, label %85, label %10

10:                                               ; preds = %2
  %11 = load ptr, ptr %4, align 8, !tbaa !64
  %12 = call noundef zeroext i1 @_ZNK6icu_776FormateqERKS0_(ptr noundef nonnull align 8 dereferenceable(24) %6, ptr noundef nonnull align 8 dereferenceable(24) %11)
  br i1 %12, label %13, label %83

13:                                               ; preds = %10
  %14 = getelementptr inbounds nuw %"class.icu_77::NumberFormat", ptr %6, i32 0, i32 3
  %15 = load i32, ptr %14, align 4, !tbaa !47
  %16 = load ptr, ptr %5, align 8, !tbaa !40
  %17 = getelementptr inbounds nuw %"class.icu_77::NumberFormat", ptr %16, i32 0, i32 3
  %18 = load i32, ptr %17, align 4, !tbaa !47
  %19 = icmp eq i32 %15, %18
  br i1 %19, label %20, label %83

20:                                               ; preds = %13
  %21 = getelementptr inbounds nuw %"class.icu_77::NumberFormat", ptr %6, i32 0, i32 4
  %22 = load i32, ptr %21, align 8, !tbaa !48
  %23 = load ptr, ptr %5, align 8, !tbaa !40
  %24 = getelementptr inbounds nuw %"class.icu_77::NumberFormat", ptr %23, i32 0, i32 4
  %25 = load i32, ptr %24, align 8, !tbaa !48
  %26 = icmp eq i32 %22, %25
  br i1 %26, label %27, label %83

27:                                               ; preds = %20
  %28 = getelementptr inbounds nuw %"class.icu_77::NumberFormat", ptr %6, i32 0, i32 5
  %29 = load i32, ptr %28, align 4, !tbaa !49
  %30 = load ptr, ptr %5, align 8, !tbaa !40
  %31 = getelementptr inbounds nuw %"class.icu_77::NumberFormat", ptr %30, i32 0, i32 5
  %32 = load i32, ptr %31, align 4, !tbaa !49
  %33 = icmp eq i32 %29, %32
  br i1 %33, label %34, label %83

34:                                               ; preds = %27
  %35 = getelementptr inbounds nuw %"class.icu_77::NumberFormat", ptr %6, i32 0, i32 6
  %36 = load i32, ptr %35, align 8, !tbaa !50
  %37 = load ptr, ptr %5, align 8, !tbaa !40
  %38 = getelementptr inbounds nuw %"class.icu_77::NumberFormat", ptr %37, i32 0, i32 6
  %39 = load i32, ptr %38, align 8, !tbaa !50
  %40 = icmp eq i32 %36, %39
  br i1 %40, label %41, label %83

41:                                               ; preds = %34
  %42 = getelementptr inbounds nuw %"class.icu_77::NumberFormat", ptr %6, i32 0, i32 1
  %43 = load i8, ptr %42, align 8, !tbaa !42
  %44 = sext i8 %43 to i32
  %45 = load ptr, ptr %5, align 8, !tbaa !40
  %46 = getelementptr inbounds nuw %"class.icu_77::NumberFormat", ptr %45, i32 0, i32 1
  %47 = load i8, ptr %46, align 8, !tbaa !42
  %48 = sext i8 %47 to i32
  %49 = icmp eq i32 %44, %48
  br i1 %49, label %50, label %83

50:                                               ; preds = %41
  %51 = getelementptr inbounds nuw %"class.icu_77::NumberFormat", ptr %6, i32 0, i32 7
  %52 = load i8, ptr %51, align 4, !tbaa !51
  %53 = sext i8 %52 to i32
  %54 = load ptr, ptr %5, align 8, !tbaa !40
  %55 = getelementptr inbounds nuw %"class.icu_77::NumberFormat", ptr %54, i32 0, i32 7
  %56 = load i8, ptr %55, align 4, !tbaa !51
  %57 = sext i8 %56 to i32
  %58 = icmp eq i32 %53, %57
  br i1 %58, label %59, label %83

59:                                               ; preds = %50
  %60 = getelementptr inbounds nuw %"class.icu_77::NumberFormat", ptr %6, i32 0, i32 9
  %61 = getelementptr inbounds [4 x i16], ptr %60, i64 0, i64 0
  %62 = load ptr, ptr %5, align 8, !tbaa !40
  %63 = getelementptr inbounds nuw %"class.icu_77::NumberFormat", ptr %62, i32 0, i32 9
  %64 = getelementptr inbounds [4 x i16], ptr %63, i64 0, i64 0
  %65 = call i32 @u_strcmp_77(ptr noundef %61, ptr noundef %64)
  %66 = icmp eq i32 %65, 0
  br i1 %66, label %67, label %83

67:                                               ; preds = %59
  %68 = getelementptr inbounds nuw %"class.icu_77::NumberFormat", ptr %6, i32 0, i32 8
  %69 = load i8, ptr %68, align 1, !tbaa !52
  %70 = sext i8 %69 to i32
  %71 = load ptr, ptr %5, align 8, !tbaa !40
  %72 = getelementptr inbounds nuw %"class.icu_77::NumberFormat", ptr %71, i32 0, i32 8
  %73 = load i8, ptr %72, align 1, !tbaa !52
  %74 = sext i8 %73 to i32
  %75 = icmp eq i32 %70, %74
  br i1 %75, label %76, label %83

76:                                               ; preds = %67
  %77 = getelementptr inbounds nuw %"class.icu_77::NumberFormat", ptr %6, i32 0, i32 11
  %78 = load i32, ptr %77, align 8, !tbaa !53
  %79 = load ptr, ptr %5, align 8, !tbaa !40
  %80 = getelementptr inbounds nuw %"class.icu_77::NumberFormat", ptr %79, i32 0, i32 11
  %81 = load i32, ptr %80, align 8, !tbaa !53
  %82 = icmp eq i32 %78, %81
  br label %83

83:                                               ; preds = %76, %67, %59, %50, %41, %34, %27, %20, %13, %10
  %84 = phi i1 [ false, %67 ], [ false, %59 ], [ false, %50 ], [ false, %41 ], [ false, %34 ], [ false, %27 ], [ false, %20 ], [ false, %13 ], [ false, %10 ], [ %82, %76 ]
  br label %85

85:                                               ; preds = %83, %2
  %86 = phi i1 [ true, %2 ], [ %84, %83 ]
  call void @llvm.lifetime.end.p0(i64 8, ptr %5) #15
  ret i1 %86
}