; Function Attrs: mustprogress uwtable
define noundef zeroext i1 @_ZNK6icu_7712NumberFormateqERKNS_6FormatE(ptr noundef nonnull align 8 dereferenceable(60) %0, ptr noundef nonnull align 8 dereferenceable(24) %1) unnamed_addr #1 align 2 {
  %3 = icmp eq ptr %0, %1
  br i1 %3, label %59, label %4

4:                                                ; preds = %2
  %5 = tail call noundef zeroext i1 @_ZNK6icu_776FormateqERKS0_(ptr noundef nonnull align 8 dereferenceable(24) %0, ptr noundef nonnull align 8 dereferenceable(24) %1)
  br i1 %5, label %6, label %59

6:                                                ; preds = %4
  %7 = getelementptr inbounds nuw i8, ptr %0, i64 28
  %8 = load i32, ptr %7, align 4, !tbaa !29
  %9 = getelementptr inbounds nuw i8, ptr %1, i64 28
  %10 = load i32, ptr %9, align 4, !tbaa !29
  %11 = icmp eq i32 %8, %10
  br i1 %11, label %12, label %59

12:                                               ; preds = %6
  %13 = getelementptr inbounds nuw i8, ptr %0, i64 32
  %14 = load i32, ptr %13, align 8, !tbaa !30
  %15 = getelementptr inbounds nuw i8, ptr %1, i64 32
  %16 = load i32, ptr %15, align 8, !tbaa !30
  %17 = icmp eq i32 %14, %16
  br i1 %17, label %18, label %59

18:                                               ; preds = %12
  %19 = getelementptr inbounds nuw i8, ptr %0, i64 36
  %20 = load i32, ptr %19, align 4, !tbaa !31
  %21 = getelementptr inbounds nuw i8, ptr %1, i64 36
  %22 = load i32, ptr %21, align 4, !tbaa !31
  %23 = icmp eq i32 %20, %22
  br i1 %23, label %24, label %59

24:                                               ; preds = %18
  %25 = getelementptr inbounds nuw i8, ptr %0, i64 40
  %26 = load i32, ptr %25, align 8, !tbaa !32
  %27 = getelementptr inbounds nuw i8, ptr %1, i64 40
  %28 = load i32, ptr %27, align 8, !tbaa !32
  %29 = icmp eq i32 %26, %28
  br i1 %29, label %30, label %59

30:                                               ; preds = %24
  %31 = getelementptr inbounds nuw i8, ptr %0, i64 24
  %32 = load i8, ptr %31, align 8, !tbaa !24
  %33 = getelementptr inbounds nuw i8, ptr %1, i64 24
  %34 = load i8, ptr %33, align 8, !tbaa !24
  %35 = icmp eq i8 %32, %34
  br i1 %35, label %36, label %59

36:                                               ; preds = %30
  %37 = getelementptr inbounds nuw i8, ptr %0, i64 44
  %38 = load i8, ptr %37, align 4, !tbaa !33
  %39 = getelementptr inbounds nuw i8, ptr %1, i64 44
  %40 = load i8, ptr %39, align 4, !tbaa !33
  %41 = icmp eq i8 %38, %40
  br i1 %41, label %42, label %59

42:                                               ; preds = %36
  %43 = getelementptr inbounds nuw i8, ptr %0, i64 46
  %44 = getelementptr inbounds nuw i8, ptr %1, i64 46
  %45 = tail call i32 @u_strcmp_77(ptr noundef nonnull %43, ptr noundef nonnull %44)
  %46 = icmp eq i32 %45, 0
  br i1 %46, label %47, label %59

47:                                               ; preds = %42
  %48 = getelementptr inbounds nuw i8, ptr %0, i64 45
  %49 = load i8, ptr %48, align 1, !tbaa !34
  %50 = getelementptr inbounds nuw i8, ptr %1, i64 45
  %51 = load i8, ptr %50, align 1, !tbaa !34
  %52 = icmp eq i8 %49, %51
  br i1 %52, label %53, label %59

53:                                               ; preds = %47
  %54 = getelementptr inbounds nuw i8, ptr %0, i64 56
  %55 = load i32, ptr %54, align 8, !tbaa !35
  %56 = getelementptr inbounds nuw i8, ptr %1, i64 56
  %57 = load i32, ptr %56, align 8, !tbaa !35
  %58 = icmp eq i32 %55, %57
  br label %59

59:                                               ; preds = %4, %6, %12, %18, %24, %30, %36, %42, %47, %53, %2
  %60 = phi i1 [ true, %2 ], [ false, %47 ], [ false, %42 ], [ false, %36 ], [ false, %30 ], [ false, %24 ], [ false, %18 ], [ false, %12 ], [ false, %6 ], [ false, %4 ], [ %58, %53 ]
  ret i1 %60
}